target datalayout = "e-m:e-p270:32:32-p271:32:32-p272:64:64-i64:64-i128:128-f80:128-n8:16:32:64-S128"
target triple = "x86_64-unknown-linux-gnu"

%struct.cbs_st = type { ptr, i64 }
%struct.ec_key_st = type { ptr, ptr, ptr, i32, i32, i32, ptr, %struct.crypto_ex_data_st }
%struct.crypto_ex_data_st = type { ptr }

@.str = private unnamed_addr constant [123 x i8] c"generated/home/dtcxzyw/WorkSpace/Projects/compilers/llvm-opt-benchmark/bench/libquic/libquic/boringssl/crypto/ec/ec_asn1.c\00", align 1

; Function Attrs: nounwind uwtable
define hidden ptr @EC_KEY_parse_private_key(ptr noundef %cbs, ptr noundef %group) #0 {
entry:
  %retval = alloca ptr, align 8
  %cbs.addr = alloca ptr, align 8
  %group.addr = alloca ptr, align 8
  %ec_private_key = alloca %struct.cbs_st, align 8
  %private_key = alloca %struct.cbs_st, align 8
  %version = alloca i64, align 8
  %inner_group = alloca ptr, align 8
  %ret = alloca ptr, align 8
  %child = alloca %struct.cbs_st, align 8
  %child60 = alloca %struct.cbs_st, align 8
  %public_key = alloca %struct.cbs_st, align 8
  %padding = alloca i8, align 1
  store ptr %cbs, ptr %cbs.addr, align 8
  store ptr %group, ptr %group.addr, align 8
  %0 = load ptr, ptr %cbs.addr, align 8
  %call = call i32 @CBS_get_asn1(ptr noundef %0, ptr noundef %ec_private_key, i32 noundef 48)
  %tobool = icmp ne i32 %call, 0
  br i1 %tobool, label %lor.lhs.false, label %if.then

lor.lhs.false:                                    ; preds = %entry
  %call1 = call i32 @CBS_get_asn1_uint64(ptr noundef %ec_private_key, ptr noundef %version)
  %tobool2 = icmp ne i32 %call1, 0
  br i1 %tobool2, label %lor.lhs.false3, label %if.then

lor.lhs.false3:                                   ; preds = %lor.lhs.false
  %1 = load i64, ptr %version, align 8
  %cmp = icmp ne i64 %1, 1
  br i1 %cmp, label %if.then, label %lor.lhs.false4

lor.lhs.false4:                                   ; preds = %lor.lhs.false3
  %call5 = call i32 @CBS_get_asn1(ptr noundef %ec_private_key, ptr noundef %private_key, i32 noundef 4)
  %tobool6 = icmp ne i32 %call5, 0
  br i1 %tobool6, label %if.end, label %if.then

if.then:                                          ; preds = %lor.lhs.false4, %lor.lhs.false3, %lor.lhs.false, %entry
  call void @ERR_put_error(i32 noundef 15, i32 noundef 0, i32 noundef 128, ptr noundef @.str, i32 noundef 81)
  store ptr null, ptr %retval, align 8
  br label %return

if.end:                                           ; preds = %lor.lhs.false4
  store ptr null, ptr %inner_group, align 8
  store ptr null, ptr %ret, align 8
  %call7 = call i32 @CBS_peek_asn1_tag(ptr noundef %ec_private_key, i32 noundef 160)
  %tobool8 = icmp ne i32 %call7, 0
  br i1 %tobool8, label %if.then9, label %if.end29

if.then9:                                         ; preds = %if.end
  %call10 = call i32 @CBS_get_asn1(ptr noundef %ec_private_key, ptr noundef %child, i32 noundef 160)
  %tobool11 = icmp ne i32 %call10, 0
  br i1 %tobool11, label %if.end13, label %if.then12

if.then12:                                        ; preds = %if.then9
  call void @ERR_put_error(i32 noundef 15, i32 noundef 0, i32 noundef 128, ptr noundef @.str, i32 noundef 95)
  br label %err

if.end13:                                         ; preds = %if.then9
  %call14 = call ptr @EC_KEY_parse_parameters(ptr noundef %child)
  store ptr %call14, ptr %inner_group, align 8
  %2 = load ptr, ptr %inner_group, align 8
  %cmp15 = icmp eq ptr %2, null
  br i1 %cmp15, label %if.then16, label %if.end17

if.then16:                                        ; preds = %if.end13
  br label %err

if.end17:                                         ; preds = %if.end13
  %3 = load ptr, ptr %group.addr, align 8
  %cmp18 = icmp eq ptr %3, null
  br i1 %cmp18, label %if.then19, label %if.else

if.then19:                                        ; preds = %if.end17
  %4 = load ptr, ptr %inner_group, align 8
  store ptr %4, ptr %group.addr, align 8
  br label %if.end24

if.else:                                          ; preds = %if.end17
  %5 = load ptr, ptr %group.addr, align 8
  %6 = load ptr, ptr %inner_group, align 8
  %call20 = call i32 @EC_GROUP_cmp(ptr noundef %5, ptr noundef %6, ptr noundef null)
  %cmp21 = icmp ne i32 %call20, 0
  br i1 %cmp21, label %if.then22, label %if.end23

if.then22:                                        ; preds = %if.else
  call void @ERR_put_error(i32 noundef 15, i32 noundef 0, i32 noundef 130, ptr noundef @.str, i32 noundef 106)
  br label %err

if.end23:                                         ; preds = %if.else
  br label %if.end24

if.end24:                                         ; preds = %if.end23, %if.then19
  %call25 = call i64 @CBS_len(ptr noundef %child)
  %cmp26 = icmp ne i64 %call25, 0
  br i1 %cmp26, label %if.then27, label %if.end28

if.then27:                                        ; preds = %if.end24
  call void @ERR_put_error(i32 noundef 15, i32 noundef 0, i32 noundef 128, ptr noundef @.str, i32 noundef 110)
  br label %err

if.end28:                                         ; preds = %if.end24
  br label %if.end29

if.end29:                                         ; preds = %if.end28, %if.end
  %7 = load ptr, ptr %group.addr, align 8
  %cmp30 = icmp eq ptr %7, null
  br i1 %cmp30, label %if.then31, label %if.end32

if.then31:                                        ; preds = %if.end29
  call void @ERR_put_error(i32 noundef 15, i32 noundef 0, i32 noundef 114, ptr noundef @.str, i32 noundef 116)
  br label %err

if.end32:                                         ; preds = %if.end29
  %call33 = call ptr @EC_KEY_new()
  store ptr %call33, ptr %ret, align 8
  %8 = load ptr, ptr %ret, align 8
  %cmp34 = icmp eq ptr %8, null
  br i1 %cmp34, label %if.then38, label %lor.lhs.false35

lor.lhs.false35:                                  ; preds = %if.end32
  %9 = load ptr, ptr %ret, align 8
  %10 = load ptr, ptr %group.addr, align 8
  %call36 = call i32 @EC_KEY_set_group(ptr noundef %9, ptr noundef %10)
  %tobool37 = icmp ne i32 %call36, 0
  br i1 %tobool37, label %if.end39, label %if.then38

if.then38:                                        ; preds = %lor.lhs.false35, %if.end32
  br label %err

if.end39:                                         ; preds = %lor.lhs.false35
  %call40 = call ptr @CBS_data(ptr noundef %private_key)
  %call41 = call i64 @CBS_len(ptr noundef %private_key)
  %call42 = call ptr @BN_bin2bn(ptr noundef %call40, i64 noundef %call41, ptr noundef null)
  %11 = load ptr, ptr %ret, align 8
  %priv_key = getelementptr inbounds %struct.ec_key_st, ptr %11, i32 0, i32 2
  store ptr %call42, ptr %priv_key, align 8
  %12 = load ptr, ptr %group.addr, align 8
  %call43 = call ptr @EC_POINT_new(ptr noundef %12)
  %13 = load ptr, ptr %ret, align 8
  %pub_key = getelementptr inbounds %struct.ec_key_st, ptr %13, i32 0, i32 1
  store ptr %call43, ptr %pub_key, align 8
  %14 = load ptr, ptr %ret, align 8
  %priv_key44 = getelementptr inbounds %struct.ec_key_st, ptr %14, i32 0, i32 2
  %15 = load ptr, ptr %priv_key44, align 8
  %cmp45 = icmp eq ptr %15, null
  br i1 %cmp45, label %if.then49, label %lor.lhs.false46

lor.lhs.false46:                                  ; preds = %if.end39
  %16 = load ptr, ptr %ret, align 8
  %pub_key47 = getelementptr inbounds %struct.ec_key_st, ptr %16, i32 0, i32 1
  %17 = load ptr, ptr %pub_key47, align 8
  %cmp48 = icmp eq ptr %17, null
  br i1 %cmp48, label %if.then49, label %if.end50

if.then49:                                        ; preds = %lor.lhs.false46, %if.end39
  br label %err

if.end50:                                         ; preds = %lor.lhs.false46
  %18 = load ptr, ptr %ret, align 8
  %priv_key51 = getelementptr inbounds %struct.ec_key_st, ptr %18, i32 0, i32 2
  %19 = load ptr, ptr %priv_key51, align 8
  %20 = load ptr, ptr %group.addr, align 8
  %call52 = call ptr @EC_GROUP_get0_order(ptr noundef %20)
  %call53 = call i32 @BN_cmp(ptr noundef %19, ptr noundef %call52)
  %cmp54 = icmp sge i32 %call53, 0
  br i1 %cmp54, label %if.then55, label %if.end56

if.then55:                                        ; preds = %if.end50
  call void @ERR_put_error(i32 noundef 15, i32 noundef 0, i32 noundef 125, ptr noundef @.str, i32 noundef 136)
  br label %err

if.end56:                                         ; preds = %if.end50
  %call57 = call i32 @CBS_peek_asn1_tag(ptr noundef %ec_private_key, i32 noundef 161)
  %tobool58 = icmp ne i32 %call57, 0
  br i1 %tobool58, label %if.then59, label %if.else90

if.then59:                                        ; preds = %if.end56
  %call61 = call i32 @CBS_get_asn1(ptr noundef %ec_private_key, ptr noundef %child60, i32 noundef 161)
  %tobool62 = icmp ne i32 %call61, 0
  br i1 %tobool62, label %lor.lhs.false63, label %if.then86

lor.lhs.false63:                                  ; preds = %if.then59
  %call64 = call i32 @CBS_get_asn1(ptr noundef %child60, ptr noundef %public_key, i32 noundef 3)
  %tobool65 = icmp ne i32 %call64, 0
  br i1 %tobool65, label %lor.lhs.false66, label %if.then86

lor.lhs.false66:                                  ; preds = %lor.lhs.false63
  %call67 = call i32 @CBS_get_u8(ptr noundef %public_key, ptr noundef %padding)
  %tobool68 = icmp ne i32 %call67, 0
  br i1 %tobool68, label %lor.lhs.false69, label %if.then86

lor.lhs.false69:                                  ; preds = %lor.lhs.false66
  %21 = load i8, ptr %padding, align 1
  %conv = zext i8 %21 to i32
  %cmp70 = icmp ne i32 %conv, 0
  br i1 %cmp70, label %if.then86, label %lor.lhs.false72

lor.lhs.false72:                                  ; preds = %lor.lhs.false69
  %call73 = call i64 @CBS_len(ptr noundef %public_key)
  %cmp74 = icmp eq i64 %call73, 0
  br i1 %cmp74, label %if.then86, label %lor.lhs.false76

lor.lhs.false76:                                  ; preds = %lor.lhs.false72
  %22 = load ptr, ptr %group.addr, align 8
  %23 = load ptr, ptr %ret, align 8
  %pub_key77 = getelementptr inbounds %struct.ec_key_st, ptr %23, i32 0, i32 1
  %24 = load ptr, ptr %pub_key77, align 8
  %call78 = call ptr @CBS_data(ptr noundef %public_key)
  %call79 = call i64 @CBS_len(ptr noundef %public_key)
  %call80 = call i32 @EC_POINT_oct2point(ptr noundef %22, ptr noundef %24, ptr noundef %call78, i64 noundef %call79, ptr noundef null)
  %tobool81 = icmp ne i32 %call80, 0
  br i1 %tobool81, label %lor.lhs.false82, label %if.then86

lor.lhs.false82:                                  ; preds = %lor.lhs.false76
  %call83 = call i64 @CBS_len(ptr noundef %child60)
  %cmp84 = icmp ne i64 %call83, 0
  br i1 %cmp84, label %if.then86, label %if.end87

if.then86:                                        ; preds = %lor.lhs.false82, %lor.lhs.false76, %lor.lhs.false72, %lor.lhs.false69, %lor.lhs.false66, %lor.lhs.false63, %if.then59
  call void @ERR_put_error(i32 noundef 15, i32 noundef 0, i32 noundef 128, ptr noundef @.str, i32 noundef 155)
  br label %err

if.end87:                                         ; preds = %lor.lhs.false82
  %call88 = call ptr @CBS_data(ptr noundef %public_key)
  %arrayidx = getelementptr inbounds i8, ptr %call88, i64 0
  %25 = load i8, ptr %arrayidx, align 1
  %conv89 = zext i8 %25 to i32
  %and = and i32 %conv89, -2
  %26 = load ptr, ptr %ret, align 8
  %conv_form = getelementptr inbounds %struct.ec_key_st, ptr %26, i32 0, i32 4
  store i32 %and, ptr %conv_form, align 4
  br label %if.end97

if.else90:                                        ; preds = %if.end56
  %27 = load ptr, ptr %group.addr, align 8
  %28 = load ptr, ptr %ret, align 8
  %pub_key91 = getelementptr inbounds %struct.ec_key_st, ptr %28, i32 0, i32 1
  %29 = load ptr, ptr %pub_key91, align 8
  %30 = load ptr, ptr %ret, align 8
  %priv_key92 = getelementptr inbounds %struct.ec_key_st, ptr %30, i32 0, i32 2
  %31 = load ptr, ptr %priv_key92, align 8
  %call93 = call i32 @EC_POINT_mul(ptr noundef %27, ptr noundef %29, ptr noundef %31, ptr noundef null, ptr noundef null, ptr noundef null)
  %tobool94 = icmp ne i32 %call93, 0
  br i1 %tobool94, label %if.end96, label %if.then95

if.then95:                                        ; preds = %if.else90
  br label %err

if.end96:                                         ; preds = %if.else90
  %32 = load ptr, ptr %ret, align 8
  %enc_flag = getelementptr inbounds %struct.ec_key_st, ptr %32, i32 0, i32 3
  %33 = load i32, ptr %enc_flag, align 8
  %or = or i32 %33, 2
  store i32 %or, ptr %enc_flag, align 8
  br label %if.end97

if.end97:                                         ; preds = %if.end96, %if.end87
  %call98 = call i64 @CBS_len(ptr noundef %ec_private_key)
  %cmp99 = icmp ne i64 %call98, 0
  br i1 %cmp99, label %if.then101, label %if.end102

if.then101:                                       ; preds = %if.end97
  call void @ERR_put_error(i32 noundef 15, i32 noundef 0, i32 noundef 128, ptr noundef @.str, i32 noundef 173)
  br label %err

if.end102:                                        ; preds = %if.end97
  %34 = load ptr, ptr %ret, align 8
  %call103 = call i32 @EC_KEY_check_key(ptr noundef %34)
  %tobool104 = icmp ne i32 %call103, 0
  br i1 %tobool104, label %if.end106, label %if.then105

if.then105:                                       ; preds = %if.end102
  br label %err

if.end106:                                        ; preds = %if.end102
  %35 = load ptr, ptr %inner_group, align 8
  call void @EC_GROUP_free(ptr noundef %35)
  %36 = load ptr, ptr %ret, align 8
  store ptr %36, ptr %retval, align 8
  br label %return

err:                                              ; preds = %if.then105, %if.then101, %if.then95, %if.then86, %if.then55, %if.then49, %if.then38, %if.then31, %if.then27, %if.then22, %if.then16, %if.then12
  %37 = load ptr, ptr %ret, align 8
  call void @EC_KEY_free(ptr noundef %37)
  %38 = load ptr, ptr %inner_group, align 8
  call void @EC_GROUP_free(ptr noundef %38)
  store ptr null, ptr %retval, align 8
  br label %return

return:                                           ; preds = %err, %if.end106, %if.then
  %39 = load ptr, ptr %retval, align 8
  ret ptr %39
}