; Function Attrs: nounwind uwtable
define hidden ptr @EC_KEY_parse_private_key(ptr noundef %cbs, ptr noundef %group) local_unnamed_addr #0 {
entry:
  %ec_private_key = alloca %struct.cbs_st, align 8
  %private_key = alloca %struct.cbs_st, align 8
  %version = alloca i64, align 8
  %child = alloca %struct.cbs_st, align 8
  %child60 = alloca %struct.cbs_st, align 8
  %public_key = alloca %struct.cbs_st, align 8
  %padding = alloca i8, align 1
  %call = call i32 @CBS_get_asn1(ptr noundef %cbs, ptr noundef nonnull %ec_private_key, i32 noundef 48) #7
  %tobool.not = icmp eq i32 %call, 0
  br i1 %tobool.not, label %if.then, label %lor.lhs.false

lor.lhs.false:                                    ; preds = %entry
  %call1 = call i32 @CBS_get_asn1_uint64(ptr noundef nonnull %ec_private_key, ptr noundef nonnull %version) #7
  %tobool2 = icmp eq i32 %call1, 0
  %0 = load i64, ptr %version, align 8
  %cmp = icmp ne i64 %0, 1
  %or.cond = select i1 %tobool2, i1 true, i1 %cmp
  br i1 %or.cond, label %if.then, label %lor.lhs.false4

lor.lhs.false4:                                   ; preds = %lor.lhs.false
  %call5 = call i32 @CBS_get_asn1(ptr noundef nonnull %ec_private_key, ptr noundef nonnull %private_key, i32 noundef 4) #7
  %tobool6.not = icmp eq i32 %call5, 0
  br i1 %tobool6.not, label %if.then, label %if.end

if.then:                                          ; preds = %lor.lhs.false4, %lor.lhs.false, %entry
  call void @ERR_put_error(i32 noundef 15, i32 noundef 0, i32 noundef 128, ptr noundef nonnull @.str, i32 noundef 81) #7
  br label %return

if.end:                                           ; preds = %lor.lhs.false4
  %call7 = call i32 @CBS_peek_asn1_tag(ptr noundef nonnull %ec_private_key, i32 noundef 160) #7
  %tobool8.not = icmp eq i32 %call7, 0
  br i1 %tobool8.not, label %if.end29, label %if.then9

if.then9:                                         ; preds = %if.end
  %call10 = call i32 @CBS_get_asn1(ptr noundef nonnull %ec_private_key, ptr noundef nonnull %child, i32 noundef 160) #7
  %tobool11.not = icmp eq i32 %call10, 0
  br i1 %tobool11.not, label %if.then12, label %if.end13

if.then12:                                        ; preds = %if.then9
  call void @ERR_put_error(i32 noundef 15, i32 noundef 0, i32 noundef 128, ptr noundef nonnull @.str, i32 noundef 95) #7
  br label %err

if.end13:                                         ; preds = %if.then9
  %call14 = call ptr @EC_KEY_parse_parameters(ptr noundef nonnull %child)
  %cmp15 = icmp eq ptr %call14, null
  br i1 %cmp15, label %err, label %if.end17

if.end17:                                         ; preds = %if.end13
  %cmp18 = icmp eq ptr %group, null
  br i1 %cmp18, label %if.end24, label %if.else

if.else:                                          ; preds = %if.end17
  %call20 = call i32 @EC_GROUP_cmp(ptr noundef nonnull %group, ptr noundef nonnull %call14, ptr noundef null) #7
  %cmp21.not = icmp eq i32 %call20, 0
  br i1 %cmp21.not, label %if.end24, label %if.then22

if.then22:                                        ; preds = %if.else
  call void @ERR_put_error(i32 noundef 15, i32 noundef 0, i32 noundef 130, ptr noundef nonnull @.str, i32 noundef 106) #7
  br label %err

if.end24:                                         ; preds = %if.end17, %if.else
  %group.addr.1 = phi ptr [ %group, %if.else ], [ %call14, %if.end17 ]
  %call25 = call i64 @CBS_len(ptr noundef nonnull %child) #7
  %cmp26.not = icmp eq i64 %call25, 0
  br i1 %cmp26.not, label %if.end32, label %if.then27

if.then27:                                        ; preds = %if.end24
  call void @ERR_put_error(i32 noundef 15, i32 noundef 0, i32 noundef 128, ptr noundef nonnull @.str, i32 noundef 110) #7
  br label %err

if.end29:                                         ; preds = %if.end
  %cmp30 = icmp eq ptr %group, null
  br i1 %cmp30, label %if.then31, label %if.end32

if.then31:                                        ; preds = %if.end29
  call void @ERR_put_error(i32 noundef 15, i32 noundef 0, i32 noundef 114, ptr noundef nonnull @.str, i32 noundef 116) #7
  br label %err

if.end32:                                         ; preds = %if.end24, %if.end29
  %inner_group.032 = phi ptr [ null, %if.end29 ], [ %call14, %if.end24 ]
  %group.addr.031 = phi ptr [ %group, %if.end29 ], [ %group.addr.1, %if.end24 ]
  %call33 = call ptr @EC_KEY_new() #7
  %cmp34 = icmp eq ptr %call33, null
  br i1 %cmp34, label %err, label %lor.lhs.false35

lor.lhs.false35:                                  ; preds = %if.end32
  %call36 = call i32 @EC_KEY_set_group(ptr noundef nonnull %call33, ptr noundef nonnull %group.addr.031) #7
  %tobool37.not = icmp eq i32 %call36, 0
  br i1 %tobool37.not, label %err, label %if.end39

if.end39:                                         ; preds = %lor.lhs.false35
  %call40 = call ptr @CBS_data(ptr noundef nonnull %private_key) #7
  %call41 = call i64 @CBS_len(ptr noundef nonnull %private_key) #7
  %call42 = call ptr @BN_bin2bn(ptr noundef %call40, i64 noundef %call41, ptr noundef null) #7
  %priv_key = getelementptr inbounds nuw i8, ptr %call33, i64 16
  store ptr %call42, ptr %priv_key, align 8
  %call43 = call ptr @EC_POINT_new(ptr noundef nonnull %group.addr.031) #7
  %pub_key = getelementptr inbounds nuw i8, ptr %call33, i64 8
  store ptr %call43, ptr %pub_key, align 8
  %1 = load ptr, ptr %priv_key, align 8
  %cmp45 = icmp eq ptr %1, null
  %cmp48 = icmp eq ptr %call43, null
  %or.cond27 = select i1 %cmp45, i1 true, i1 %cmp48
  br i1 %or.cond27, label %err, label %if.end50

if.end50:                                         ; preds = %if.end39
  %call52 = call ptr @EC_GROUP_get0_order(ptr noundef nonnull %group.addr.031) #7
  %call53 = call i32 @BN_cmp(ptr noundef nonnull %1, ptr noundef %call52) #7
  %cmp54 = icmp sgt i32 %call53, -1
  br i1 %cmp54, label %if.then55, label %if.end56

if.then55:                                        ; preds = %if.end50
  call void @ERR_put_error(i32 noundef 15, i32 noundef 0, i32 noundef 125, ptr noundef nonnull @.str, i32 noundef 136) #7
  br label %err

if.end56:                                         ; preds = %if.end50
  %call57 = call i32 @CBS_peek_asn1_tag(ptr noundef nonnull %ec_private_key, i32 noundef 161) #7
  %tobool58.not = icmp eq i32 %call57, 0
  br i1 %tobool58.not, label %if.else90, label %if.then59

if.then59:                                        ; preds = %if.end56
  %call61 = call i32 @CBS_get_asn1(ptr noundef nonnull %ec_private_key, ptr noundef nonnull %child60, i32 noundef 161) #7
  %tobool62.not = icmp eq i32 %call61, 0
  br i1 %tobool62.not, label %if.then86, label %lor.lhs.false63

lor.lhs.false63:                                  ; preds = %if.then59
  %call64 = call i32 @CBS_get_asn1(ptr noundef nonnull %child60, ptr noundef nonnull %public_key, i32 noundef 3) #7
  %tobool65.not = icmp eq i32 %call64, 0
  br i1 %tobool65.not, label %if.then86, label %lor.lhs.false66

lor.lhs.false66:                                  ; preds = %lor.lhs.false63
  %call67 = call i32 @CBS_get_u8(ptr noundef nonnull %public_key, ptr noundef nonnull %padding) #7
  %tobool68 = icmp eq i32 %call67, 0
  %2 = load i8, ptr %padding, align 1
  %cmp70 = icmp ne i8 %2, 0
  %or.cond1 = select i1 %tobool68, i1 true, i1 %cmp70
  br i1 %or.cond1, label %if.then86, label %lor.lhs.false72

lor.lhs.false72:                                  ; preds = %lor.lhs.false66
  %call73 = call i64 @CBS_len(ptr noundef nonnull %public_key) #7
  %cmp74 = icmp eq i64 %call73, 0
  br i1 %cmp74, label %if.then86, label %lor.lhs.false76

lor.lhs.false76:                                  ; preds = %lor.lhs.false72
  %3 = load ptr, ptr %pub_key, align 8
  %call78 = call ptr @CBS_data(ptr noundef nonnull %public_key) #7
  %call79 = call i64 @CBS_len(ptr noundef nonnull %public_key) #7
  %call80 = call i32 @EC_POINT_oct2point(ptr noundef nonnull %group.addr.031, ptr noundef %3, ptr noundef %call78, i64 noundef %call79, ptr noundef null) #7
  %tobool81.not = icmp eq i32 %call80, 0
  br i1 %tobool81.not, label %if.then86, label %lor.lhs.false82

lor.lhs.false82:                                  ; preds = %lor.lhs.false76
  %call83 = call i64 @CBS_len(ptr noundef nonnull %child60) #7
  %cmp84.not = icmp eq i64 %call83, 0
  br i1 %cmp84.not, label %if.end87, label %if.then86

if.then86:                                        ; preds = %lor.lhs.false82, %lor.lhs.false76, %lor.lhs.false72, %lor.lhs.false66, %lor.lhs.false63, %if.then59
  call void @ERR_put_error(i32 noundef 15, i32 noundef 0, i32 noundef 128, ptr noundef nonnull @.str, i32 noundef 155) #7
  br label %err

if.end87:                                         ; preds = %lor.lhs.false82
  %call88 = call ptr @CBS_data(ptr noundef nonnull %public_key) #7
  %4 = load i8, ptr %call88, align 1
  %5 = and i8 %4, -2
  %and = zext i8 %5 to i32
  %conv_form = getelementptr inbounds nuw i8, ptr %call33, i64 28
  store i32 %and, ptr %conv_form, align 4
  br label %if.end97

if.else90:                                        ; preds = %if.end56
  %6 = load ptr, ptr %pub_key, align 8
  %7 = load ptr, ptr %priv_key, align 8
  %call93 = call i32 @EC_POINT_mul(ptr noundef nonnull %group.addr.031, ptr noundef %6, ptr noundef %7, ptr noundef null, ptr noundef null, ptr noundef null) #7
  %tobool94.not = icmp eq i32 %call93, 0
  br i1 %tobool94.not, label %err, label %if.end96

if.end96:                                         ; preds = %if.else90
  %enc_flag = getelementptr inbounds nuw i8, ptr %call33, i64 24
  %8 = load i32, ptr %enc_flag, align 8
  %or = or i32 %8, 2
  store i32 %or, ptr %enc_flag, align 8
  br label %if.end97

if.end97:                                         ; preds = %if.end96, %if.end87
  %call98 = call i64 @CBS_len(ptr noundef nonnull %ec_private_key) #7
  %cmp99.not = icmp eq i64 %call98, 0
  br i1 %cmp99.not, label %if.end102, label %if.then101

if.then101:                                       ; preds = %if.end97
  call void @ERR_put_error(i32 noundef 15, i32 noundef 0, i32 noundef 128, ptr noundef nonnull @.str, i32 noundef 173) #7
  br label %err

if.end102:                                        ; preds = %if.end97
  %call103 = call i32 @EC_KEY_check_key(ptr noundef nonnull %call33) #7
  %tobool104.not = icmp eq i32 %call103, 0
  br i1 %tobool104.not, label %err, label %if.end106

if.end106:                                        ; preds = %if.end102
  call void @EC_GROUP_free(ptr noundef %inner_group.032) #7
  br label %return

err:                                              ; preds = %if.end102, %if.else90, %if.end39, %if.end32, %lor.lhs.false35, %if.end13, %if.then101, %if.then86, %if.then55, %if.then31, %if.then27, %if.then22, %if.then12
  %inner_group.1 = phi ptr [ null, %if.end13 ], [ %call14, %if.then27 ], [ null, %if.then31 ], [ %inner_group.032, %if.end32 ], [ %inner_group.032, %if.end39 ], [ %inner_group.032, %if.then55 ], [ %inner_group.032, %if.then86 ], [ %inner_group.032, %if.then101 ], [ %inner_group.032, %if.end102 ], [ %inner_group.032, %if.else90 ], [ %inner_group.032, %lor.lhs.false35 ], [ %call14, %if.then22 ], [ null, %if.then12 ]
  %ret.0 = phi ptr [ null, %if.end13 ], [ null, %if.then27 ], [ null, %if.then31 ], [ null, %if.end32 ], [ %call33, %if.end39 ], [ %call33, %if.then55 ], [ %call33, %if.then86 ], [ %call33, %if.then101 ], [ %call33, %if.end102 ], [ %call33, %if.else90 ], [ %call33, %lor.lhs.false35 ], [ null, %if.then22 ], [ null, %if.then12 ]
  call void @EC_KEY_free(ptr noundef %ret.0) #7
  call void @EC_GROUP_free(ptr noundef %inner_group.1) #7
  br label %return

return:                                           ; preds = %err, %if.end106, %if.then
  %retval.0 = phi ptr [ null, %if.then ], [ null, %err ], [ %call33, %if.end106 ]
  ret ptr %retval.0
}